target datalayout = "e-m:e-p270:32:32-p271:32:32-p272:64:64-i64:64-i128:128-f80:128-n8:16:32:64-S128"
target triple = "x86_64-pc-linux-gnu"

%struct.lean_object = type { i32, i32 }

; Function Attrs: inlinehint nounwind uwtable
define internal zeroext i8 @lean_ptr_tag(ptr noundef %0) #1 {
  %2 = alloca ptr, align 8
  store ptr %0, ptr %2, align 8, !tbaa !4
  %3 = load ptr, ptr %2, align 8, !tbaa !4
  %4 = getelementptr inbounds nuw %struct.lean_object, ptr %3, i32 0, i32 1
  %5 = load i32, ptr %4, align 4
  %6 = lshr i32 %5, 24
  %7 = trunc i32 %6 to i8
  ret i8 %7
}

; Function Attrs: inlinehint nounwind uwtable
define internal i32 @lean_obj_tag(ptr noundef %0) #1 {
  %2 = alloca i32, align 4
  %3 = alloca ptr, align 8
  store ptr %0, ptr %3, align 8, !tbaa !4
  %4 = load ptr, ptr %3, align 8, !tbaa !4
  %5 = call zeroext i1 @lean_is_scalar(ptr noundef %4)
  br i1 %5, label %6, label %10

6:                                                ; preds = %1
  %7 = load ptr, ptr %3, align 8, !tbaa !4
  %8 = call i64 @lean_unbox(ptr noundef %7)
  %9 = trunc i64 %8 to i32
  store i32 %9, ptr %2, align 4
  br label %14

10:                                               ; preds = %1
  %11 = load ptr, ptr %3, align 8, !tbaa !4
  %12 = call zeroext i8 @lean_ptr_tag(ptr noundef %11)
  %13 = zext i8 %12 to i32
  store i32 %13, ptr %2, align 4
  br label %14

14:                                               ; preds = %10, %6
  %15 = load i32, ptr %2, align 4
  ret i32 %15
}

; Function Attrs: alwaysinline nounwind uwtable
define internal void @lean_dec_ref(ptr noundef %0) #0 {
  %2 = alloca ptr, align 8
  store ptr %0, ptr %2, align 8, !tbaa !4
  %3 = load ptr, ptr %2, align 8, !tbaa !4
  %4 = getelementptr inbounds nuw %struct.lean_object, ptr %3, i32 0, i32 0
  %5 = load i32, ptr %4, align 4, !tbaa !15
  %6 = icmp sgt i32 %5, 1
  %7 = zext i1 %6 to i32
  %8 = sext i32 %7 to i64
  %9 = call i64 @llvm.expect.i64(i64 %8, i64 1)
  %10 = icmp ne i64 %9, 0
  br i1 %10, label %11, label %16

11:                                               ; preds = %1
  %12 = load ptr, ptr %2, align 8, !tbaa !4
  %13 = getelementptr inbounds nuw %struct.lean_object, ptr %12, i32 0, i32 0
  %14 = load i32, ptr %13, align 4, !tbaa !15
  %15 = add i32 %14, -1
  store i32 %15, ptr %13, align 4, !tbaa !15
  br label %24

16:                                               ; preds = %1
  %17 = load ptr, ptr %2, align 8, !tbaa !4
  %18 = getelementptr inbounds nuw %struct.lean_object, ptr %17, i32 0, i32 0
  %19 = load i32, ptr %18, align 4, !tbaa !15
  %20 = icmp ne i32 %19, 0
  br i1 %20, label %21, label %23

21:                                               ; preds = %16
  %22 = load ptr, ptr %2, align 8, !tbaa !4
  call void @lean_dec_ref_cold(ptr noundef %22)
  br label %23

23:                                               ; preds = %21, %16
  br label %24

24:                                               ; preds = %23, %11
  ret void
}

; Function Attrs: alwaysinline nounwind uwtable
define internal zeroext i1 @lean_is_scalar(ptr noundef %0) #0 {
  %2 = alloca ptr, align 8
  store ptr %0, ptr %2, align 8, !tbaa !4
  %3 = load ptr, ptr %2, align 8, !tbaa !4
  %4 = ptrtoint ptr %3 to i64
  %5 = and i64 %4, 1
  %6 = icmp eq i64 %5, 1
  ret i1 %6
}

; Function Attrs: inlinehint nounwind uwtable
define internal ptr @lean_box(i64 noundef %0) #1 {
  %2 = alloca i64, align 8
  store i64 %0, ptr %2, align 8, !tbaa !8
  %3 = load i64, ptr %2, align 8, !tbaa !8
  %4 = shl i64 %3, 1
  %5 = or i64 %4, 1
  %6 = inttoptr i64 %5 to ptr
  ret ptr %6
}

; Function Attrs: nounwind uwtable
define zeroext i8 @l___private_Lake_Build_Job_Basic_0__Lake_ordJobAction____x40_Lake_Build_Job_Basic___hyg_268_(i8 noundef zeroext %0, i8 noundef zeroext %1) #2 {
  %3 = alloca i8, align 1
  %4 = alloca i8, align 1
  %5 = alloca i8, align 1
  %6 = alloca ptr, align 8
  %7 = alloca i8, align 1
  %8 = alloca i32, align 4
  %9 = alloca i8, align 1
  %10 = alloca ptr, align 8
  %11 = alloca i8, align 1
  %12 = alloca i8, align 1
  %13 = alloca i8, align 1
  %14 = alloca ptr, align 8
  %15 = alloca i8, align 1
  %16 = alloca i8, align 1
  %17 = alloca i8, align 1
  %18 = alloca ptr, align 8
  %19 = alloca i8, align 1
  %20 = alloca i8, align 1
  store i8 %0, ptr %4, align 1, !tbaa !10
  store i8 %1, ptr %5, align 1, !tbaa !10
  br label %21

21:                                               ; preds = %2
  %22 = load i8, ptr %4, align 1, !tbaa !10
  %23 = zext i8 %22 to i32
  switch i32 %23, label %65 [
    i32 0, label %24
    i32 1, label %37
    i32 2, label %51
  ]

24:                                               ; preds = %21
  call void @llvm.lifetime.start.p0(i64 8, ptr %6) #7
  %25 = load i8, ptr %5, align 1, !tbaa !10
  %26 = zext i8 %25 to i64
  %27 = call ptr @lean_box(i64 noundef %26)
  store ptr %27, ptr %6, align 8, !tbaa !4
  %28 = load ptr, ptr %6, align 8, !tbaa !4
  %29 = call i32 @lean_obj_tag(ptr noundef %28)
  %30 = icmp eq i32 %29, 0
  br i1 %30, label %31, label %33

31:                                               ; preds = %24
  call void @llvm.lifetime.start.p0(i64 1, ptr %7) #7
  store i8 1, ptr %7, align 1, !tbaa !10
  %32 = load i8, ptr %7, align 1, !tbaa !10
  store i8 %32, ptr %3, align 1
  store i32 1, ptr %8, align 4
  call void @llvm.lifetime.end.p0(i64 1, ptr %7) #7
  br label %36

33:                                               ; preds = %24
  call void @llvm.lifetime.start.p0(i64 1, ptr %9) #7
  %34 = load ptr, ptr %6, align 8, !tbaa !4
  call void @lean_dec(ptr noundef %34)
  store i8 0, ptr %9, align 1, !tbaa !10
  %35 = load i8, ptr %9, align 1, !tbaa !10
  store i8 %35, ptr %3, align 1
  store i32 1, ptr %8, align 4
  call void @llvm.lifetime.end.p0(i64 1, ptr %9) #7
  br label %36

36:                                               ; preds = %33, %31
  call void @llvm.lifetime.end.p0(i64 8, ptr %6) #7
  br label %78

37:                                               ; preds = %21
  call void @llvm.lifetime.start.p0(i64 8, ptr %10) #7
  %38 = load i8, ptr %5, align 1, !tbaa !10
  %39 = zext i8 %38 to i64
  %40 = call ptr @lean_box(i64 noundef %39)
  store ptr %40, ptr %10, align 8, !tbaa !4
  %41 = load ptr, ptr %10, align 8, !tbaa !4
  %42 = call i32 @lean_obj_tag(ptr noundef %41)
  switch i32 %42, label %47 [
    i32 0, label %43
    i32 1, label %45
  ]

43:                                               ; preds = %37
  call void @llvm.lifetime.start.p0(i64 1, ptr %11) #7
  store i8 2, ptr %11, align 1, !tbaa !10
  %44 = load i8, ptr %11, align 1, !tbaa !10
  store i8 %44, ptr %3, align 1
  store i32 1, ptr %8, align 4
  call void @llvm.lifetime.end.p0(i64 1, ptr %11) #7
  br label %50

45:                                               ; preds = %37
  call void @llvm.lifetime.start.p0(i64 1, ptr %12) #7
  store i8 1, ptr %12, align 1, !tbaa !10
  %46 = load i8, ptr %12, align 1, !tbaa !10
  store i8 %46, ptr %3, align 1
  store i32 1, ptr %8, align 4
  call void @llvm.lifetime.end.p0(i64 1, ptr %12) #7
  br label %50

47:                                               ; preds = %37
  call void @llvm.lifetime.start.p0(i64 1, ptr %13) #7
  %48 = load ptr, ptr %10, align 8, !tbaa !4
  call void @lean_dec(ptr noundef %48)
  store i8 0, ptr %13, align 1, !tbaa !10
  %49 = load i8, ptr %13, align 1, !tbaa !10
  store i8 %49, ptr %3, align 1
  store i32 1, ptr %8, align 4
  call void @llvm.lifetime.end.p0(i64 1, ptr %13) #7
  br label %50

50:                                               ; preds = %47, %45, %43
  call void @llvm.lifetime.end.p0(i64 8, ptr %10) #7
  br label %78

51:                                               ; preds = %21
  call void @llvm.lifetime.start.p0(i64 8, ptr %14) #7
  %52 = load i8, ptr %5, align 1, !tbaa !10
  %53 = zext i8 %52 to i64
  %54 = call ptr @lean_box(i64 noundef %53)
  store ptr %54, ptr %14, align 8, !tbaa !4
  %55 = load ptr, ptr %14, align 8, !tbaa !4
  %56 = call i32 @lean_obj_tag(ptr noundef %55)
  switch i32 %56, label %61 [
    i32 2, label %57
    i32 3, label %59
  ]

57:                                               ; preds = %51
  call void @llvm.lifetime.start.p0(i64 1, ptr %15) #7
  store i8 1, ptr %15, align 1, !tbaa !10
  %58 = load i8, ptr %15, align 1, !tbaa !10
  store i8 %58, ptr %3, align 1
  store i32 1, ptr %8, align 4
  call void @llvm.lifetime.end.p0(i64 1, ptr %15) #7
  br label %64

59:                                               ; preds = %51
  call void @llvm.lifetime.start.p0(i64 1, ptr %16) #7
  store i8 0, ptr %16, align 1, !tbaa !10
  %60 = load i8, ptr %16, align 1, !tbaa !10
  store i8 %60, ptr %3, align 1
  store i32 1, ptr %8, align 4
  call void @llvm.lifetime.end.p0(i64 1, ptr %16) #7
  br label %64

61:                                               ; preds = %51
  call void @llvm.lifetime.start.p0(i64 1, ptr %17) #7
  %62 = load ptr, ptr %14, align 8, !tbaa !4
  call void @lean_dec(ptr noundef %62)
  store i8 2, ptr %17, align 1, !tbaa !10
  %63 = load i8, ptr %17, align 1, !tbaa !10
  store i8 %63, ptr %3, align 1
  store i32 1, ptr %8, align 4
  call void @llvm.lifetime.end.p0(i64 1, ptr %17) #7
  br label %64

64:                                               ; preds = %61, %59, %57
  call void @llvm.lifetime.end.p0(i64 8, ptr %14) #7
  br label %78

65:                                               ; preds = %21
  call void @llvm.lifetime.start.p0(i64 8, ptr %18) #7
  %66 = load i8, ptr %5, align 1, !tbaa !10
  %67 = zext i8 %66 to i64
  %68 = call ptr @lean_box(i64 noundef %67)
  store ptr %68, ptr %18, align 8, !tbaa !4
  %69 = load ptr, ptr %18, align 8, !tbaa !4
  %70 = call i32 @lean_obj_tag(ptr noundef %69)
  %71 = icmp eq i32 %70, 3
  br i1 %71, label %72, label %74

72:                                               ; preds = %65
  call void @llvm.lifetime.start.p0(i64 1, ptr %19) #7
  store i8 1, ptr %19, align 1, !tbaa !10
  %73 = load i8, ptr %19, align 1, !tbaa !10
  store i8 %73, ptr %3, align 1
  store i32 1, ptr %8, align 4
  call void @llvm.lifetime.end.p0(i64 1, ptr %19) #7
  br label %77

74:                                               ; preds = %65
  call void @llvm.lifetime.start.p0(i64 1, ptr %20) #7
  %75 = load ptr, ptr %18, align 8, !tbaa !4
  call void @lean_dec(ptr noundef %75)
  store i8 2, ptr %20, align 1, !tbaa !10
  %76 = load i8, ptr %20, align 1, !tbaa !10
  store i8 %76, ptr %3, align 1
  store i32 1, ptr %8, align 4
  call void @llvm.lifetime.end.p0(i64 1, ptr %20) #7
  br label %77

77:                                               ; preds = %74, %72
  call void @llvm.lifetime.end.p0(i64 8, ptr %18) #7
  br label %78

78:                                               ; preds = %77, %64, %50, %36
  %79 = load i8, ptr %3, align 1
  ret i8 %79
}

; Function Attrs: alwaysinline nounwind uwtable
define internal void @lean_dec(ptr noundef %0) #0 {
  %2 = alloca ptr, align 8
  store ptr %0, ptr %2, align 8, !tbaa !4
  %3 = load ptr, ptr %2, align 8, !tbaa !4
  %4 = call zeroext i1 @lean_is_scalar(ptr noundef %3)
  br i1 %4, label %7, label %5

5:                                                ; preds = %1
  %6 = load ptr, ptr %2, align 8, !tbaa !4
  call void @lean_dec_ref(ptr noundef %6)
  br label %7

7:                                                ; preds = %5, %1
  ret void
}

; Function Attrs: inlinehint nounwind uwtable
define internal i64 @lean_unbox(ptr noundef %0) #1 {
  %2 = alloca ptr, align 8
  store ptr %0, ptr %2, align 8, !tbaa !4
  %3 = load ptr, ptr %2, align 8, !tbaa !4
  %4 = ptrtoint ptr %3 to i64
  %5 = lshr i64 %4, 1
  ret i64 %5
}

; Function Attrs: nounwind uwtable
define ptr @l___private_Lake_Build_Job_Basic_0__Lake_ordJobAction____x40_Lake_Build_Job_Basic___hyg_268____boxed(ptr noundef %0, ptr noundef %1) #2 {
  %3 = alloca ptr, align 8
  %4 = alloca ptr, align 8
  %5 = alloca i8, align 1
  %6 = alloca i8, align 1
  %7 = alloca i8, align 1
  %8 = alloca ptr, align 8
  store ptr %0, ptr %3, align 8, !tbaa !4
  store ptr %1, ptr %4, align 8, !tbaa !4
  br label %9

9:                                                ; preds = %2
  call void @llvm.lifetime.start.p0(i64 1, ptr %5) #7
  call void @llvm.lifetime.start.p0(i64 1, ptr %6) #7
  call void @llvm.lifetime.start.p0(i64 1, ptr %7) #7
  call void @llvm.lifetime.start.p0(i64 8, ptr %8) #7
  %10 = load ptr, ptr %3, align 8, !tbaa !4
  %11 = call i64 @lean_unbox(ptr noundef %10)
  %12 = trunc i64 %11 to i8
  store i8 %12, ptr %5, align 1, !tbaa !10
  %13 = load ptr, ptr %3, align 8, !tbaa !4
  call void @lean_dec(ptr noundef %13)
  %14 = load ptr, ptr %4, align 8, !tbaa !4
  %15 = call i64 @lean_unbox(ptr noundef %14)
  %16 = trunc i64 %15 to i8
  store i8 %16, ptr %6, align 1, !tbaa !10
  %17 = load ptr, ptr %4, align 8, !tbaa !4
  call void @lean_dec(ptr noundef %17)
  %18 = load i8, ptr %5, align 1, !tbaa !10
  %19 = load i8, ptr %6, align 1, !tbaa !10
  %20 = call zeroext i8 @l___private_Lake_Build_Job_Basic_0__Lake_ordJobAction____x40_Lake_Build_Job_Basic___hyg_268_(i8 noundef zeroext %18, i8 noundef zeroext %19)
  store i8 %20, ptr %7, align 1, !tbaa !10
  %21 = load i8, ptr %7, align 1, !tbaa !10
  %22 = zext i8 %21 to i64
  %23 = call ptr @lean_box(i64 noundef %22)
  store ptr %23, ptr %8, align 8, !tbaa !4
  %24 = load ptr, ptr %8, align 8, !tbaa !4
  call void @llvm.lifetime.end.p0(i64 8, ptr %8) #7
  call void @llvm.lifetime.end.p0(i64 1, ptr %7) #7
  call void @llvm.lifetime.end.p0(i64 1, ptr %6) #7
  call void @llvm.lifetime.end.p0(i64 1, ptr %5) #7
  ret ptr %24
}