; Function Attrs: nounwind uwtable
define nonnull ptr @l___private_Lake_Build_Job_Basic_0__Lake_ordJobAction____x40_Lake_Build_Job_Basic___hyg_268____boxed(ptr noundef %0, ptr noundef %1) #1 {
  %3 = ptrtoint ptr %0 to i64
  %4 = lshr i64 %3, 1
  %5 = trunc i64 %4 to i8
  %6 = and i64 %3, 1
  %.not = icmp eq i64 %6, 0
  br i1 %.not, label %7, label %lean_dec.exit7

7:                                                ; preds = %2
  %8 = load i32, ptr %0, align 4, !tbaa !4
  %9 = icmp sgt i32 %8, 1
  br i1 %9, label %10, label %12, !prof !9

10:                                               ; preds = %7
  %11 = add nsw i32 %8, -1
  store i32 %11, ptr %0, align 4, !tbaa !4
  br label %lean_dec.exit7

12:                                               ; preds = %7
  %.not.i = icmp eq i32 %8, 0
  br i1 %.not.i, label %lean_dec.exit7, label %13

13:                                               ; preds = %12
  tail call void @lean_dec_ref_cold(ptr noundef nonnull %0) #8
  br label %lean_dec.exit7

lean_dec.exit7:                                   ; preds = %13, %12, %10, %2
  %14 = ptrtoint ptr %1 to i64
  %15 = lshr i64 %14, 1
  %16 = trunc i64 %15 to i8
  %17 = and i64 %14, 1
  %.not10 = icmp eq i64 %17, 0
  br i1 %.not10, label %18, label %lean_dec.exit

18:                                               ; preds = %lean_dec.exit7
  %19 = load i32, ptr %1, align 4, !tbaa !4
  %20 = icmp sgt i32 %19, 1
  br i1 %20, label %21, label %23, !prof !9

21:                                               ; preds = %18
  %22 = add nsw i32 %19, -1
  store i32 %22, ptr %1, align 4, !tbaa !4
  br label %lean_dec.exit

23:                                               ; preds = %18
  %.not.i8 = icmp eq i32 %19, 0
  br i1 %.not.i8, label %lean_dec.exit, label %24

24:                                               ; preds = %23
  tail call void @lean_dec_ref_cold(ptr noundef nonnull %1) #8
  br label %lean_dec.exit

lean_dec.exit:                                    ; preds = %24, %23, %21, %lean_dec.exit7
  switch i8 %5, label %29 [
    i8 0, label %25
    i8 1, label %27
    i8 2, label %28
  ]

25:                                               ; preds = %lean_dec.exit
  %26 = icmp eq i8 %16, 0
  %spec.select.i = zext i1 %26 to i64
  br label %l___private_Lake_Build_Job_Basic_0__Lake_ordJobAction____x40_Lake_Build_Job_Basic___hyg_268_.exit

27:                                               ; preds = %lean_dec.exit
  %switch.selectcmp.i = icmp eq i8 %16, 1
  %switch.select.i = zext i1 %switch.selectcmp.i to i64
  %switch.selectcmp36.i = icmp eq i8 %16, 0
  %switch.select37.i = select i1 %switch.selectcmp36.i, i64 2, i64 %switch.select.i
  br label %l___private_Lake_Build_Job_Basic_0__Lake_ordJobAction____x40_Lake_Build_Job_Basic___hyg_268_.exit

28:                                               ; preds = %lean_dec.exit
  %switch.selectcmp38.i = icmp eq i8 %16, 3
  %switch.select39.i = select i1 %switch.selectcmp38.i, i64 0, i64 2
  %switch.selectcmp40.i = icmp eq i8 %16, 2
  %switch.select41.i = select i1 %switch.selectcmp40.i, i64 1, i64 %switch.select39.i
  br label %l___private_Lake_Build_Job_Basic_0__Lake_ordJobAction____x40_Lake_Build_Job_Basic___hyg_268_.exit

29:                                               ; preds = %lean_dec.exit
  %30 = icmp eq i8 %16, 3
  %spec.select42.i = select i1 %30, i64 1, i64 2
  br label %l___private_Lake_Build_Job_Basic_0__Lake_ordJobAction____x40_Lake_Build_Job_Basic___hyg_268_.exit

l___private_Lake_Build_Job_Basic_0__Lake_ordJobAction____x40_Lake_Build_Job_Basic___hyg_268_.exit: ; preds = %25, %27, %28, %29
  %.1.i = phi i64 [ %spec.select.i, %25 ], [ %switch.select37.i, %27 ], [ %switch.select41.i, %28 ], [ %spec.select42.i, %29 ]
  %31 = shl nuw nsw i64 %.1.i, 1
  %32 = and i64 %31, 510
  %33 = or disjoint i64 %32, 1
  %34 = inttoptr i64 %33 to ptr
  ret ptr %34
}